; ModuleID = '38/145.c'
source_filename = "38/145.c"
target datalayout = "e-m:e-p270:32:32-p271:32:32-p272:64:64-i64:64-f80:128-n8:16:32:64-S128"
target triple = "x86_64-pc-linux-gnu"

@.str = private unnamed_addr constant [3 x i8] c"%d\00", align 1
@.str.1 = private unnamed_addr constant [4 x i8] c"%lf\00", align 1
@.str.2 = private unnamed_addr constant [7 x i8] c"%.5lf\0A\00", align 1

; Function Attrs: noinline nounwind uwtable
define dso_local i32 @main() #0 {
  %1 = alloca i32, align 4
  %2 = alloca i32, align 4
  %3 = alloca i32, align 4
  %4 = alloca i32, align 4
  %5 = alloca i32, align 4
  %6 = alloca double, align 8
  %7 = alloca [200 x double], align 16
  %8 = alloca double*, align 8
  %9 = alloca double, align 8
  %10 = alloca double, align 8
  store i32 0, i32* %1, align 4
  %11 = call i32 (i8*, ...) @__isoc99_scanf(i8* getelementptr inbounds ([3 x i8], [3 x i8]* @.str, i64 0, i64 0), i32* %3)
  store i32 1, i32* %4, align 4
  br label %12

12:                                               ; preds = %81, %0
  %13 = load i32, i32* %4, align 4
  %14 = load i32, i32* %3, align 4
  %15 = icmp sle i32 %13, %14
  br i1 %15, label %16, label %84

16:                                               ; preds = %12
  store double 0.000000e+00, double* %6, align 8
  store double 0.000000e+00, double* %9, align 8
  store double 0.000000e+00, double* %10, align 8
  %17 = call i32 (i8*, ...) @__isoc99_scanf(i8* getelementptr inbounds ([3 x i8], [3 x i8]* @.str, i64 0, i64 0), i32* %2)
  store i32 0, i32* %5, align 4
  br label %18

18:                                               ; preds = %26, %16
  %19 = load i32, i32* %5, align 4
  %20 = load i32, i32* %2, align 4
  %21 = icmp slt i32 %19, %20
  br i1 %21, label %22, label %29

22:                                               ; preds = %18
  %23 = load i32, i32* %5, align 4
  %24 = sext i32 %23 to i64
  %25 = getelementptr inbounds [200 x double], [200 x double]* %7, i64 0, i64 %24
  store double 0.000000e+00, double* %25, align 8
  br label %26

26:                                               ; preds = %22
  %27 = load i32, i32* %5, align 4
  %28 = add nsw i32 %27, 1
  store i32 %28, i32* %5, align 4
  br label %18

29:                                               ; preds = %18
  %30 = getelementptr inbounds [200 x double], [200 x double]* %7, i64 0, i64 0
  store double* %30, double** %8, align 8
  store i32 0, i32* %5, align 4
  br label %31

31:                                               ; preds = %47, %29
  %32 = load i32, i32* %5, align 4
  %33 = load i32, i32* %2, align 4
  %34 = icmp slt i32 %32, %33
  br i1 %34, label %35, label %50

35:                                               ; preds = %31
  %36 = load double*, double** %8, align 8
  %37 = call i32 (i8*, ...) @__isoc99_scanf(i8* getelementptr inbounds ([4 x i8], [4 x i8]* @.str.1, i64 0, i64 0), double* %36)
  %38 = load double*, double** %8, align 8
  %39 = load double, double* %38, align 8
  %40 = load i32, i32* %2, align 4
  %41 = sitofp i32 %40 to double
  %42 = fdiv double %39, %41
  %43 = load double, double* %6, align 8
  %44 = fadd double %43, %42
  store double %44, double* %6, align 8
  %45 = load double*, double** %8, align 8
  %46 = getelementptr inbounds double, double* %45, i32 1
  store double* %46, double** %8, align 8
  br label %47

47:                                               ; preds = %35
  %48 = load i32, i32* %5, align 4
  %49 = add nsw i32 %48, 1
  store i32 %49, i32* %5, align 4
  br label %31

50:                                               ; preds = %31
  %51 = getelementptr inbounds [200 x double], [200 x double]* %7, i64 0, i64 0
  store double* %51, double** %8, align 8
  store i32 0, i32* %5, align 4
  br label %52

52:                                               ; preds = %73, %50
  %53 = load i32, i32* %5, align 4
  %54 = load i32, i32* %2, align 4
  %55 = icmp slt i32 %53, %54
  br i1 %55, label %56, label %76

56:                                               ; preds = %52
  %57 = load double*, double** %8, align 8
  %58 = load double, double* %57, align 8
  %59 = load double, double* %6, align 8
  %60 = fsub double %58, %59
  %61 = load double*, double** %8, align 8
  %62 = load double, double* %61, align 8
  %63 = load double, double* %6, align 8
  %64 = fsub double %62, %63
  %65 = fmul double %60, %64
  %66 = load i32, i32* %2, align 4
  %67 = sitofp i32 %66 to double
  %68 = fdiv double %65, %67
  %69 = load double, double* %9, align 8
  %70 = fadd double %69, %68
  store double %70, double* %9, align 8
  %71 = load double*, double** %8, align 8
  %72 = getelementptr inbounds double, double* %71, i32 1
  store double* %72, double** %8, align 8
  br label %73

73:                                               ; preds = %56
  %74 = load i32, i32* %5, align 4
  %75 = add nsw i32 %74, 1
  store i32 %75, i32* %5, align 4
  br label %52

76:                                               ; preds = %52
  %77 = load double, double* %9, align 8
  %78 = call double @sqrt(double %77) #3
  store double %78, double* %10, align 8
  %79 = load double, double* %10, align 8
  %80 = call i32 (i8*, ...) @printf(i8* getelementptr inbounds ([7 x i8], [7 x i8]* @.str.2, i64 0, i64 0), double %79)
  br label %81

81:                                               ; preds = %76
  %82 = load i32, i32* %4, align 4
  %83 = add nsw i32 %82, 1
  store i32 %83, i32* %4, align 4
  br label %12

84:                                               ; preds = %12
  ret i32 0
}

declare dso_local i32 @__isoc99_scanf(i8*, ...) #1

; Function Attrs: nounwind
declare dso_local double @sqrt(double) #2

declare dso_local i32 @printf(i8*, ...) #1


!llvm.module.flags = !{!0}
!llvm.ident = !{!1}

!0 = !{i32 1, !"wchar_size", i32 4}
!1 = !{!"clang version 10.0.0-4ubuntu1 "}
